; Function Attrs: nounwind uwtable
define dso_local range(i64 -9223372036854775800, -9223372036854775808) i64 @rdbSaveStreamPEL(ptr noundef %0, ptr noundef %1, i32 noundef %2) local_unnamed_addr #0 {
  %4 = alloca i64, align 8
  %5 = alloca %struct.raxIterator, align 8
  %6 = tail call i64 @raxSize(ptr noundef %1) #23
  %7 = tail call i32 @rdbSaveLen(ptr noundef %0, i64 noundef %6)
  %8 = icmp eq i32 %7, -1
  br i1 %8, label %97, label %9

9:                                                ; preds = %3
  %10 = zext nneg i32 %7 to i64
  call void @llvm.lifetime.start.p0(i64 480, ptr nonnull %5) #23
  call void @raxStart(ptr noundef nonnull %5, ptr noundef %1) #23
  %11 = call i32 @raxSeek(ptr noundef nonnull %5, ptr noundef nonnull @.str.22, ptr noundef null, i64 noundef 0) #23
  %12 = call i32 @raxNext(ptr noundef nonnull %5) #23
  %.not51 = icmp eq i32 %12, 0
  br i1 %.not51, label %.thread36, label %.lr.ph

.lr.ph:                                           ; preds = %9
  %13 = getelementptr inbounds nuw i8, ptr %5, i64 16
  %.not.i = icmp eq ptr %0, null
  %14 = getelementptr inbounds nuw i8, ptr %0, i64 48
  %15 = getelementptr inbounds nuw i8, ptr %0, i64 64
  %16 = getelementptr inbounds nuw i8, ptr %0, i64 32
  %17 = getelementptr inbounds nuw i8, ptr %0, i64 8
  %18 = getelementptr inbounds nuw i8, ptr %0, i64 56
  %19 = getelementptr inbounds nuw i8, ptr %5, i64 24
  %.not2732 = icmp eq i32 %2, 0
  br i1 %.not.i, label %.lr.ph.split.us, label %.lr.ph.split

.lr.ph.split.us:                                  ; preds = %.lr.ph
  br i1 %.not2732, label %rdbWriteRaw.exit.thread30.us.us, label %rdbWriteRaw.exit.thread30.us

rdbWriteRaw.exit.thread30.us.us:                  ; preds = %.lr.ph.split.us, %rdbWriteRaw.exit.thread30.us.us
  %.02052.us.us = phi i64 [ %20, %rdbWriteRaw.exit.thread30.us.us ], [ %10, %.lr.ph.split.us ]
  %20 = add nuw nsw i64 %.02052.us.us, 16
  %21 = call i32 @raxNext(ptr noundef nonnull %5) #23
  %.not.us.us = icmp eq i32 %21, 0
  br i1 %.not.us.us, label %.thread36, label %rdbWriteRaw.exit.thread30.us.us, !llvm.loop !72

rdbWriteRaw.exit.thread30.us:                     ; preds = %.lr.ph.split.us, %27
  %.02052.us = phi i64 [ %29, %27 ], [ %10, %.lr.ph.split.us ]
  %22 = load ptr, ptr %19, align 8, !tbaa !74
  %23 = getelementptr inbounds nuw i8, ptr %22, i64 8
  %24 = load i64, ptr %23, align 8, !tbaa !78
  %25 = call i32 @rdbSaveLen(ptr noundef null, i64 noundef %24)
  %26 = icmp eq i32 %25, -1
  br i1 %26, label %.thread36, label %27

27:                                               ; preds = %rdbWriteRaw.exit.thread30.us
  %.reass58 = add i64 %.02052.us, 24
  %28 = zext nneg i32 %25 to i64
  %29 = add nsw i64 %.reass58, %28
  %30 = call i32 @raxNext(ptr noundef nonnull %5) #23
  %.not.us = icmp eq i32 %30, 0
  br i1 %.not.us, label %.thread36, label %rdbWriteRaw.exit.thread30.us, !llvm.loop !72

.lr.ph.split:                                     ; preds = %.lr.ph
  br i1 %.not2732, label %.lr.ph.split.split.us, label %.lr.ph.split.split

.lr.ph.split.split.us:                            ; preds = %.lr.ph.split, %rdbWriteRaw.exit.us
  %.02052.us53 = phi i64 [ %48, %rdbWriteRaw.exit.us ], [ %10, %.lr.ph.split ]
  %31 = load i64, ptr %14, align 8, !tbaa !53
  %32 = and i64 %31, 6
  %.not.i.i.us = icmp eq i64 %32, 0
  br i1 %.not.i.i.us, label %.preheader.i.i.us.preheader, label %.thread36

.preheader.i.i.us.preheader:                      ; preds = %.lr.ph.split.split.us
  %33 = load ptr, ptr %13, align 8, !tbaa !81
  br label %.preheader.i.i.us

.preheader.i.i.us:                                ; preds = %.preheader.i.i.us.preheader, %43
  %.02539.i.i.us = phi i64 [ %45, %43 ], [ 16, %.preheader.i.i.us.preheader ]
  %.02738.i.i.us = phi ptr [ %44, %43 ], [ %33, %.preheader.i.i.us.preheader ]
  %34 = load i64, ptr %15, align 8, !tbaa !55
  %.not32.not.i.i.us = icmp eq i64 %34, 0
  %35 = call i64 @llvm.umin.i64(i64 %34, i64 %.02539.i.i.us)
  %36 = select i1 %.not32.not.i.i.us, i64 %.02539.i.i.us, i64 %35
  %37 = load ptr, ptr %16, align 8, !tbaa !56
  %.not33.i.i.us = icmp eq ptr %37, null
  br i1 %.not33.i.i.us, label %39, label %38

38:                                               ; preds = %.preheader.i.i.us
  call void %37(ptr noundef nonnull %0, ptr noundef %.02738.i.i.us, i64 noundef %36) #23
  br label %39

39:                                               ; preds = %38, %.preheader.i.i.us
  %40 = load ptr, ptr %17, align 8, !tbaa !57
  %41 = call i64 %40(ptr noundef nonnull %0, ptr noundef %.02738.i.i.us, i64 noundef %36) #23
  %42 = icmp eq i64 %41, 0
  br i1 %42, label %.thread.i.i, label %43

43:                                               ; preds = %39
  %44 = getelementptr inbounds nuw i8, ptr %.02738.i.i.us, i64 %36
  %45 = sub i64 %.02539.i.i.us, %36
  %46 = load i64, ptr %18, align 8, !tbaa !58
  %47 = add i64 %46, %36
  store i64 %47, ptr %18, align 8, !tbaa !58
  %.not31.i.i.us = icmp eq i64 %45, 0
  br i1 %.not31.i.i.us, label %rdbWriteRaw.exit.us, label %.preheader.i.i.us

rdbWriteRaw.exit.us:                              ; preds = %43
  %48 = add nuw nsw i64 %.02052.us53, 16
  %49 = call i32 @raxNext(ptr noundef nonnull %5) #23
  %.not.us55 = icmp eq i32 %49, 0
  br i1 %.not.us55, label %.thread36, label %.lr.ph.split.split.us, !llvm.loop !72

.lr.ph.split.split:                               ; preds = %.lr.ph.split, %93
  %.02052 = phi i64 [ %95, %93 ], [ %10, %.lr.ph.split ]
  %50 = load i64, ptr %14, align 8, !tbaa !53
  %51 = and i64 %50, 6
  %.not.i.i = icmp eq i64 %51, 0
  br i1 %.not.i.i, label %.preheader.i.i.preheader, label %.thread36

.preheader.i.i.preheader:                         ; preds = %.lr.ph.split.split
  %52 = load ptr, ptr %13, align 8, !tbaa !81
  br label %.preheader.i.i

.preheader.i.i:                                   ; preds = %.preheader.i.i.preheader, %64
  %.02539.i.i = phi i64 [ %66, %64 ], [ 16, %.preheader.i.i.preheader ]
  %.02738.i.i = phi ptr [ %65, %64 ], [ %52, %.preheader.i.i.preheader ]
  %53 = load i64, ptr %15, align 8, !tbaa !55
  %.not32.not.i.i = icmp eq i64 %53, 0
  %54 = call i64 @llvm.umin.i64(i64 %53, i64 %.02539.i.i)
  %55 = select i1 %.not32.not.i.i, i64 %.02539.i.i, i64 %54
  %56 = load ptr, ptr %16, align 8, !tbaa !56
  %.not33.i.i = icmp eq ptr %56, null
  br i1 %.not33.i.i, label %58, label %57

57:                                               ; preds = %.preheader.i.i
  call void %56(ptr noundef nonnull %0, ptr noundef %.02738.i.i, i64 noundef %55) #23
  br label %58

58:                                               ; preds = %57, %.preheader.i.i
  %59 = load ptr, ptr %17, align 8, !tbaa !57
  %60 = call i64 %59(ptr noundef nonnull %0, ptr noundef %.02738.i.i, i64 noundef %55) #23
  %61 = icmp eq i64 %60, 0
  br i1 %61, label %.thread.i.i, label %64

.thread.i.i:                                      ; preds = %58, %39
  %62 = load i64, ptr %14, align 8, !tbaa !53
  %63 = or i64 %62, 2
  store i64 %63, ptr %14, align 8, !tbaa !53
  br label %.thread36

64:                                               ; preds = %58
  %65 = getelementptr inbounds nuw i8, ptr %.02738.i.i, i64 %55
  %66 = sub i64 %.02539.i.i, %55
  %67 = load i64, ptr %18, align 8, !tbaa !58
  %68 = add i64 %67, %55
  store i64 %68, ptr %18, align 8, !tbaa !58
  %.not31.i.i = icmp eq i64 %66, 0
  br i1 %.not31.i.i, label %rdbWriteRaw.exit, label %.preheader.i.i

rdbWriteRaw.exit:                                 ; preds = %64
  %69 = load ptr, ptr %19, align 8, !tbaa !74
  %70 = load i64, ptr %69, align 8, !tbaa !82
  call void @llvm.lifetime.start.p0(i64 8, ptr nonnull %4) #23
  store i64 %70, ptr %4, align 8, !tbaa !61
  %71 = load i64, ptr %14, align 8, !tbaa !53
  %72 = and i64 %71, 6
  %.not.i.i.i = icmp eq i64 %72, 0
  br i1 %.not.i.i.i, label %.preheader.i.i.i, label %.loopexit40

.preheader.i.i.i:                                 ; preds = %rdbWriteRaw.exit, %84
  %.02539.i.i.i = phi i64 [ %86, %84 ], [ 8, %rdbWriteRaw.exit ]
  %.02738.i.i.i = phi ptr [ %85, %84 ], [ %4, %rdbWriteRaw.exit ]
  %73 = load i64, ptr %15, align 8, !tbaa !55
  %.not32.not.i.i.i = icmp eq i64 %73, 0
  %74 = call i64 @llvm.umin.i64(i64 %73, i64 %.02539.i.i.i)
  %75 = select i1 %.not32.not.i.i.i, i64 %.02539.i.i.i, i64 %74
  %76 = load ptr, ptr %16, align 8, !tbaa !56
  %.not33.i.i.i = icmp eq ptr %76, null
  br i1 %.not33.i.i.i, label %78, label %77

77:                                               ; preds = %.preheader.i.i.i
  call void %76(ptr noundef nonnull %0, ptr noundef %.02738.i.i.i, i64 noundef %75) #23
  br label %78

78:                                               ; preds = %77, %.preheader.i.i.i
  %79 = load ptr, ptr %17, align 8, !tbaa !57
  %80 = call i64 %79(ptr noundef nonnull %0, ptr noundef %.02738.i.i.i, i64 noundef %75) #23
  %81 = icmp eq i64 %80, 0
  br i1 %81, label %.thread.i.i.i, label %84

.thread.i.i.i:                                    ; preds = %78
  %82 = load i64, ptr %14, align 8, !tbaa !53
  %83 = or i64 %82, 2
  store i64 %83, ptr %14, align 8, !tbaa !53
  br label %.loopexit40

84:                                               ; preds = %78
  %85 = getelementptr inbounds nuw i8, ptr %.02738.i.i.i, i64 %75
  %86 = sub i64 %.02539.i.i.i, %75
  %87 = load i64, ptr %18, align 8, !tbaa !58
  %88 = add i64 %87, %75
  store i64 %88, ptr %18, align 8, !tbaa !58
  %.not31.i.i.i = icmp eq i64 %86, 0
  br i1 %.not31.i.i.i, label %.loopexit, label %.preheader.i.i.i

.loopexit40:                                      ; preds = %rdbWriteRaw.exit, %.thread.i.i.i
  call void @llvm.lifetime.end.p0(i64 8, ptr nonnull %4) #23
  br label %.thread36

.loopexit:                                        ; preds = %84
  call void @llvm.lifetime.end.p0(i64 8, ptr nonnull %4) #23
  %89 = getelementptr inbounds nuw i8, ptr %69, i64 8
  %90 = load i64, ptr %89, align 8, !tbaa !78
  %91 = call i32 @rdbSaveLen(ptr noundef nonnull %0, i64 noundef %90)
  %92 = icmp eq i32 %91, -1
  br i1 %92, label %.thread36, label %93

93:                                               ; preds = %.loopexit
  %.reass = add i64 %.02052, 24
  %94 = zext nneg i32 %91 to i64
  %95 = add nsw i64 %.reass, %94
  %96 = call i32 @raxNext(ptr noundef nonnull %5) #23
  %.not = icmp eq i32 %96, 0
  br i1 %.not, label %.thread36, label %.lr.ph.split.split, !llvm.loop !72

.thread36:                                        ; preds = %93, %.loopexit, %.lr.ph.split.split, %rdbWriteRaw.exit.us, %.lr.ph.split.split.us, %27, %rdbWriteRaw.exit.thread30.us, %rdbWriteRaw.exit.thread30.us.us, %9, %.thread.i.i, %.loopexit40
  %.2 = phi i64 [ -1, %.loopexit40 ], [ -1, %.thread.i.i ], [ %10, %9 ], [ %20, %rdbWriteRaw.exit.thread30.us.us ], [ -1, %rdbWriteRaw.exit.thread30.us ], [ %29, %27 ], [ -1, %.lr.ph.split.split.us ], [ %48, %rdbWriteRaw.exit.us ], [ -1, %.lr.ph.split.split ], [ -1, %.loopexit ], [ %95, %93 ]
  call void @raxStop(ptr noundef nonnull %5) #23
  call void @llvm.lifetime.end.p0(i64 480, ptr nonnull %5) #23
  br label %97

97:                                               ; preds = %3, %.thread36
  %.0 = phi i64 [ %.2, %.thread36 ], [ -1, %3 ]
  ret i64 %.0
}